target datalayout = "e-m:e-p270:32:32-p271:32:32-p272:64:64-i64:64-i128:128-f80:128-n8:16:32:64-S128"
target triple = "x86_64-pc-linux-gnu"

%struct.PyWideStringList = type { i64, ptr }
%struct.PyConfig = type { i32, i32, i32, i32, i32, i32, i64, i32, i32, i32, i32, i32, i32, i32, ptr, i32, ptr, ptr, ptr, i32, %struct.PyWideStringList, %struct.PyWideStringList, %struct.PyWideStringList, %struct.PyWideStringList, i32, i32, i32, i32, i32, i32, i32, i32, i32, i32, i32, i32, i32, ptr, ptr, ptr, i32, i32, i32, i32, i32, ptr, ptr, ptr, ptr, i32, %struct.PyWideStringList, ptr, ptr, ptr, ptr, ptr, ptr, ptr, i32, ptr, ptr, ptr, ptr, i32, i32, i32 }

@.str.23 = private unnamed_addr constant [12 x i32] [i32 95, i32 95, i32 105, i32 110, i32 105, i32 116, i32 95, i32 95, i32 46, i32 112, i32 121, i32 0], align 4

; Function Attrs: nounwind uwtable
define hidden i32 @_PyModule_IsPossiblyShadowing(ptr noundef %0) #0 {
  %2 = alloca i32, align 4
  %3 = alloca ptr, align 8
  %4 = alloca ptr, align 8
  %5 = alloca i32, align 4
  %6 = alloca [4097 x i32], align 16
  %7 = alloca i64, align 8
  %8 = alloca ptr, align 8
  %9 = alloca ptr, align 8
  %10 = alloca [4096 x i32], align 16
  %11 = alloca i32, align 4
  store ptr %0, ptr %3, align 8, !tbaa !4
  %12 = load ptr, ptr %3, align 8, !tbaa !4
  %13 = icmp eq ptr %12, null
  br i1 %13, label %14, label %15

14:                                               ; preds = %1
  store i32 0, ptr %2, align 4
  br label %82

15:                                               ; preds = %1
  call void @llvm.lifetime.start.p0(i64 8, ptr %4) #9
  %16 = call ptr @_Py_GetConfig()
  store ptr %16, ptr %4, align 8, !tbaa !146
  %17 = load ptr, ptr %4, align 8, !tbaa !146
  %18 = getelementptr inbounds nuw %struct.PyConfig, ptr %17, i32 0, i32 41
  %19 = load i32, ptr %18, align 4, !tbaa !148
  %20 = icmp ne i32 %19, 0
  br i1 %20, label %21, label %22

21:                                               ; preds = %15
  store i32 0, ptr %2, align 4
  store i32 1, ptr %5, align 4
  br label %81

22:                                               ; preds = %15
  call void @llvm.lifetime.start.p0(i64 16388, ptr %6) #9
  call void @llvm.lifetime.start.p0(i64 8, ptr %7) #9
  %23 = load ptr, ptr %3, align 8, !tbaa !4
  %24 = getelementptr inbounds [4097 x i32], ptr %6, i64 0, i64 0
  %25 = call i64 @PyUnicode_AsWideChar(ptr noundef %23, ptr noundef %24, i64 noundef 4096)
  store i64 %25, ptr %7, align 8, !tbaa !25
  %26 = load i64, ptr %7, align 8, !tbaa !25
  %27 = icmp slt i64 %26, 0
  br i1 %27, label %28, label %29

28:                                               ; preds = %22
  store i32 -1, ptr %2, align 4
  store i32 1, ptr %5, align 4
  br label %80

29:                                               ; preds = %22
  %30 = load i64, ptr %7, align 8, !tbaa !25
  %31 = getelementptr [4097 x i32], ptr %6, i64 0, i64 %30
  store i32 0, ptr %31, align 4, !tbaa !35
  call void @llvm.lifetime.start.p0(i64 8, ptr %8) #9
  %32 = getelementptr inbounds [4097 x i32], ptr %6, i64 0, i64 0
  %33 = call ptr @wcsrchr(ptr noundef %32, i32 noundef 47) #10
  store ptr %33, ptr %8, align 8, !tbaa !149
  %34 = load ptr, ptr %8, align 8, !tbaa !149
  %35 = icmp eq ptr %34, null
  br i1 %35, label %36, label %37

36:                                               ; preds = %29
  store i32 0, ptr %2, align 4
  store i32 1, ptr %5, align 4
  br label %79

37:                                               ; preds = %29
  %38 = load ptr, ptr %8, align 8, !tbaa !149
  %39 = getelementptr i32, ptr %38, i64 1
  %40 = call i32 @wcscmp(ptr noundef %39, ptr noundef @.str.23) #10
  %41 = icmp eq i32 %40, 0
  br i1 %41, label %42, label %50

42:                                               ; preds = %37
  %43 = load ptr, ptr %8, align 8, !tbaa !149
  store i32 0, ptr %43, align 4, !tbaa !35
  %44 = getelementptr inbounds [4097 x i32], ptr %6, i64 0, i64 0
  %45 = call ptr @wcsrchr(ptr noundef %44, i32 noundef 47) #10
  store ptr %45, ptr %8, align 8, !tbaa !149
  %46 = load ptr, ptr %8, align 8, !tbaa !149
  %47 = icmp eq ptr %46, null
  br i1 %47, label %48, label %49

48:                                               ; preds = %42
  store i32 0, ptr %2, align 4
  store i32 1, ptr %5, align 4
  br label %79

49:                                               ; preds = %42
  br label %50

50:                                               ; preds = %49, %37
  %51 = load ptr, ptr %8, align 8, !tbaa !149
  store i32 0, ptr %51, align 4, !tbaa !35
  call void @llvm.lifetime.start.p0(i64 8, ptr %9) #9
  %52 = load ptr, ptr %4, align 8, !tbaa !146
  %53 = getelementptr inbounds nuw %struct.PyConfig, ptr %52, i32 0, i32 62
  %54 = load ptr, ptr %53, align 8, !tbaa !150
  store ptr %54, ptr %9, align 8, !tbaa !149
  %55 = load ptr, ptr %9, align 8, !tbaa !149
  %56 = icmp ne ptr %55, null
  br i1 %56, label %58, label %57

57:                                               ; preds = %50
  store i32 0, ptr %2, align 4
  store i32 1, ptr %5, align 4
  br label %78

58:                                               ; preds = %50
  call void @llvm.lifetime.start.p0(i64 16384, ptr %10) #9
  %59 = load ptr, ptr %9, align 8, !tbaa !149
  %60 = getelementptr i32, ptr %59, i64 0
  %61 = load i32, ptr %60, align 4, !tbaa !35
  %62 = icmp eq i32 %61, 0
  br i1 %62, label %63, label %70

63:                                               ; preds = %58
  %64 = getelementptr inbounds [4096 x i32], ptr %10, i64 0, i64 0
  %65 = call ptr @_Py_wgetcwd(ptr noundef %64, i64 noundef 4096)
  %66 = icmp ne ptr %65, null
  br i1 %66, label %68, label %67

67:                                               ; preds = %63
  store i32 -1, ptr %2, align 4
  store i32 1, ptr %5, align 4
  br label %77

68:                                               ; preds = %63
  %69 = getelementptr inbounds [4096 x i32], ptr %10, i64 0, i64 0
  store ptr %69, ptr %9, align 8, !tbaa !149
  br label %70

70:                                               ; preds = %68, %58
  call void @llvm.lifetime.start.p0(i64 4, ptr %11) #9
  %71 = load ptr, ptr %9, align 8, !tbaa !149
  %72 = getelementptr inbounds [4097 x i32], ptr %6, i64 0, i64 0
  %73 = call i32 @wcscmp(ptr noundef %71, ptr noundef %72) #10
  %74 = icmp eq i32 %73, 0
  %75 = zext i1 %74 to i32
  store i32 %75, ptr %11, align 4, !tbaa !35
  %76 = load i32, ptr %11, align 4, !tbaa !35
  store i32 %76, ptr %2, align 4
  store i32 1, ptr %5, align 4
  call void @llvm.lifetime.end.p0(i64 4, ptr %11) #9
  br label %77

77:                                               ; preds = %70, %67
  call void @llvm.lifetime.end.p0(i64 16384, ptr %10) #9
  br label %78

78:                                               ; preds = %77, %57
  call void @llvm.lifetime.end.p0(i64 8, ptr %9) #9
  br label %79

79:                                               ; preds = %78, %48, %36
  call void @llvm.lifetime.end.p0(i64 8, ptr %8) #9
  br label %80

80:                                               ; preds = %79, %28
  call void @llvm.lifetime.end.p0(i64 8, ptr %7) #9
  call void @llvm.lifetime.end.p0(i64 16388, ptr %6) #9
  br label %81

81:                                               ; preds = %80, %21
  call void @llvm.lifetime.end.p0(i64 8, ptr %4) #9
  br label %82

82:                                               ; preds = %81, %14
  %83 = load i32, ptr %2, align 4
  ret i32 %83
}