; Function Attrs: nounwind uwtable
define hidden range(i32 -1, 2) i32 @_PyModule_IsPossiblyShadowing(ptr noundef %0) local_unnamed_addr #0 {
  %2 = alloca [4097 x i32], align 16
  %3 = alloca [4096 x i32], align 16
  %4 = icmp eq ptr %0, null
  br i1 %4, label %37, label %5

5:                                                ; preds = %1
  %6 = tail call ptr @_Py_GetConfig() #8
  %7 = getelementptr inbounds nuw i8, ptr %6, i64 260
  %8 = load i32, ptr %7, align 4, !tbaa !219
  %.not = icmp eq i32 %8, 0
  br i1 %.not, label %9, label %37

9:                                                ; preds = %5
  call void @llvm.lifetime.start.p0(i64 16388, ptr nonnull %2) #8
  %10 = call i64 @PyUnicode_AsWideChar(ptr noundef nonnull %0, ptr noundef nonnull %2, i64 noundef 4096) #8
  %11 = icmp slt i64 %10, 0
  br i1 %11, label %36, label %12

12:                                               ; preds = %9
  %13 = getelementptr [4097 x i32], ptr %2, i64 0, i64 %10
  store i32 0, ptr %13, align 4, !tbaa !216
  %14 = call ptr @wcsrchr(ptr noundef nonnull %2, i32 noundef 47) #9
  %15 = icmp eq ptr %14, null
  br i1 %15, label %36, label %16

16:                                               ; preds = %12
  %17 = getelementptr i8, ptr %14, i64 4
  %18 = call i32 @wcscmp(ptr noundef %17, ptr noundef nonnull @.str.23) #9
  %19 = icmp eq i32 %18, 0
  br i1 %19, label %20, label %23

20:                                               ; preds = %16
  store i32 0, ptr %14, align 4, !tbaa !216
  %21 = call ptr @wcsrchr(ptr noundef nonnull %2, i32 noundef 47) #9
  %22 = icmp eq ptr %21, null
  br i1 %22, label %36, label %23

23:                                               ; preds = %20, %16
  %.016 = phi ptr [ %21, %20 ], [ %14, %16 ]
  store i32 0, ptr %.016, align 4, !tbaa !216
  %24 = getelementptr inbounds nuw i8, ptr %6, i64 424
  %25 = load ptr, ptr %24, align 8, !tbaa !220
  %.not22 = icmp eq ptr %25, null
  br i1 %.not22, label %36, label %26

26:                                               ; preds = %23
  call void @llvm.lifetime.start.p0(i64 16384, ptr nonnull %3) #8
  %27 = load i32, ptr %25, align 4, !tbaa !216
  %28 = icmp eq i32 %27, 0
  br i1 %28, label %29, label %31

29:                                               ; preds = %26
  %30 = call ptr @_Py_wgetcwd(ptr noundef nonnull %3, i64 noundef 4096) #8
  %.not23 = icmp eq ptr %30, null
  br i1 %.not23, label %35, label %31

31:                                               ; preds = %29, %26
  %.015 = phi ptr [ %25, %26 ], [ %3, %29 ]
  %32 = call i32 @wcscmp(ptr noundef nonnull %.015, ptr noundef nonnull %2) #9
  %33 = icmp eq i32 %32, 0
  %34 = zext i1 %33 to i32
  br label %35

35:                                               ; preds = %29, %31
  %.5 = phi i32 [ %34, %31 ], [ -1, %29 ]
  call void @llvm.lifetime.end.p0(i64 16384, ptr nonnull %3) #8
  br label %36

36:                                               ; preds = %12, %20, %23, %35, %9
  %.2 = phi i32 [ -1, %9 ], [ 0, %12 ], [ 0, %20 ], [ %.5, %35 ], [ 0, %23 ]
  call void @llvm.lifetime.end.p0(i64 16388, ptr nonnull %2) #8
  br label %37

37:                                               ; preds = %36, %5, %1
  %.0 = phi i32 [ 0, %1 ], [ %.2, %36 ], [ 0, %5 ]
  ret i32 %.0
}